; Function Attrs: mustprogress uwtable
define void @_ZN7httplib6Client4PostERKNSt7__cxx1112basic_stringIcSt11char_traitsIcESaIcEEESt8functionIFbmRNS_8DataSinkEEES8_(ptr noalias sret(%"class.httplib::Result") align 8 %agg.result, ptr nocapture noundef nonnull readonly align 8 dereferenceable(9) %this, ptr noundef nonnull align 8 dereferenceable(32) %path, ptr nocapture noundef %content_provider, ptr noundef nonnull align 8 dereferenceable(32) %content_type) local_unnamed_addr #5 align 2 personality ptr @__gxx_personality_v0 {
entry:
  %agg.tmp = alloca %"class.std::function.118", align 8
  %0 = load ptr, ptr %this, align 8
  %_M_invoker.i = getelementptr inbounds i8, ptr %agg.tmp, i64 24
  %_M_invoker2.i = getelementptr inbounds i8, ptr %content_provider, i64 24
  call void @llvm.memset.p0.i64(ptr noundef nonnull align 8 dereferenceable(24) %agg.tmp, i8 0, i64 24, i1 false)
  %1 = load ptr, ptr %_M_invoker2.i, align 8
  store ptr %1, ptr %_M_invoker.i, align 8
  %_M_manager.i.i.i = getelementptr inbounds i8, ptr %content_provider, i64 16
  %2 = load ptr, ptr %_M_manager.i.i.i, align 8
  %tobool.not.i.i.not.i = icmp eq ptr %2, null
  br i1 %tobool.not.i.i.not.i, label %_ZNSt8functionIFbmRN7httplib8DataSinkEEEC2EOS4_.exit, label %if.then.i

if.then.i:                                        ; preds = %entry
  %_M_manager.i.i = getelementptr inbounds i8, ptr %agg.tmp, i64 16
  call void @llvm.memcpy.p0.p0.i64(ptr noundef nonnull align 8 dereferenceable(16) %agg.tmp, ptr noundef nonnull align 8 dereferenceable(16) %content_provider, i64 16, i1 false)
  store ptr %2, ptr %_M_manager.i.i, align 8
  tail call void @llvm.memset.p0.i64(ptr noundef nonnull align 8 dereferenceable(16) %_M_manager.i.i.i, i8 0, i64 16, i1 false)
  br label %_ZNSt8functionIFbmRN7httplib8DataSinkEEEC2EOS4_.exit

_ZNSt8functionIFbmRN7httplib8DataSinkEEEC2EOS4_.exit: ; preds = %entry, %if.then.i
  invoke void @_ZN7httplib10ClientImpl4PostERKNSt7__cxx1112basic_stringIcSt11char_traitsIcESaIcEEESt8functionIFbmRNS_8DataSinkEEES8_(ptr sret(%"class.httplib::Result") align 8 %agg.result, ptr noundef nonnull align 8 dereferenceable(1000) %0, ptr noundef nonnull align 8 dereferenceable(32) %path, ptr noundef nonnull %agg.tmp, ptr noundef nonnull align 8 dereferenceable(32) %content_type)
          to label %invoke.cont unwind label %lpad

invoke.cont:                                      ; preds = %_ZNSt8functionIFbmRN7httplib8DataSinkEEEC2EOS4_.exit
  %_M_manager.i.i1 = getelementptr inbounds i8, ptr %agg.tmp, i64 16
  %3 = load ptr, ptr %_M_manager.i.i1, align 8
  %tobool.not.i.i = icmp eq ptr %3, null
  br i1 %tobool.not.i.i, label %_ZNSt8functionIFbmRN7httplib8DataSinkEEED2Ev.exit, label %if.then.i.i

if.then.i.i:                                      ; preds = %invoke.cont
  %call.i.i = invoke noundef zeroext i1 %3(ptr noundef nonnull align 8 dereferenceable(16) %agg.tmp, ptr noundef nonnull align 8 dereferenceable(16) %agg.tmp, i32 noundef 3)
          to label %_ZNSt8functionIFbmRN7httplib8DataSinkEEED2Ev.exit unwind label %terminate.lpad.i.i

terminate.lpad.i.i:                               ; preds = %if.then.i.i
  %4 = landingpad { ptr, i32 }
          catch ptr null
  %5 = extractvalue { ptr, i32 } %4, 0
  call void @__clang_call_terminate(ptr %5) #40
  unreachable

_ZNSt8functionIFbmRN7httplib8DataSinkEEED2Ev.exit: ; preds = %invoke.cont, %if.then.i.i
  ret void

lpad:                                             ; preds = %_ZNSt8functionIFbmRN7httplib8DataSinkEEEC2EOS4_.exit
  %6 = landingpad { ptr, i32 }
          cleanup
  %_M_manager.i.i2 = getelementptr inbounds i8, ptr %agg.tmp, i64 16
  %7 = load ptr, ptr %_M_manager.i.i2, align 8
  %tobool.not.i.i3 = icmp eq ptr %7, null
  br i1 %tobool.not.i.i3, label %_ZNSt8functionIFbmRN7httplib8DataSinkEEED2Ev.exit7, label %if.then.i.i4

if.then.i.i4:                                     ; preds = %lpad
  %call.i.i5 = invoke noundef zeroext i1 %7(ptr noundef nonnull align 8 dereferenceable(16) %agg.tmp, ptr noundef nonnull align 8 dereferenceable(16) %agg.tmp, i32 noundef 3)
          to label %_ZNSt8functionIFbmRN7httplib8DataSinkEEED2Ev.exit7 unwind label %terminate.lpad.i.i6

terminate.lpad.i.i6:                              ; preds = %if.then.i.i4
  %8 = landingpad { ptr, i32 }
          catch ptr null
  %9 = extractvalue { ptr, i32 } %8, 0
  call void @__clang_call_terminate(ptr %9) #40
  unreachable

_ZNSt8functionIFbmRN7httplib8DataSinkEEED2Ev.exit7: ; preds = %lpad, %if.then.i.i4
  resume { ptr, i32 } %6
}